target datalayout = "e-m:e-p270:32:32-p271:32:32-p272:64:64-i64:64-i128:128-f80:128-n8:16:32:64-S128"
target triple = "x86_64-pc-linux-gnu"

%struct.lv_ll_t = type { i32, ptr, ptr }
%struct._lv_group_t = type { %struct.lv_ll_t, ptr, ptr, ptr, ptr, i8 }

; Function Attrs: nounwind uwtable
define internal ptr @get_indev(ptr noundef %0) #0 {
  %2 = alloca ptr, align 8
  %3 = alloca ptr, align 8
  %4 = alloca ptr, align 8
  %5 = alloca ptr, align 8
  %6 = alloca i32, align 4
  %7 = alloca i32, align 4
  store ptr %0, ptr %3, align 8, !tbaa !3
  call void @llvm.lifetime.start.p0(i64 8, ptr %4) #3
  store ptr null, ptr %4, align 8, !tbaa !3
  call void @llvm.lifetime.start.p0(i64 8, ptr %5) #3
  %8 = call ptr @lv_indev_get_next(ptr noundef null)
  store ptr %8, ptr %5, align 8, !tbaa !3
  br label %9

9:                                                ; preds = %31, %1
  %10 = load ptr, ptr %5, align 8, !tbaa !3
  %11 = icmp ne ptr %10, null
  br i1 %11, label %12, label %32

12:                                               ; preds = %9
  call void @llvm.lifetime.start.p0(i64 4, ptr %6) #3
  %13 = load ptr, ptr %5, align 8, !tbaa !3
  %14 = call i32 @lv_indev_get_type(ptr noundef %13)
  store i32 %14, ptr %6, align 4, !tbaa !27
  %15 = load i32, ptr %6, align 4, !tbaa !27
  %16 = icmp eq i32 %15, 1
  br i1 %16, label %17, label %19

17:                                               ; preds = %12
  %18 = load ptr, ptr %5, align 8, !tbaa !3
  store ptr %18, ptr %2, align 8
  store i32 1, ptr %7, align 4
  br label %29

19:                                               ; preds = %12
  %20 = load ptr, ptr %5, align 8, !tbaa !3
  %21 = call ptr @lv_indev_get_group(ptr noundef %20)
  %22 = load ptr, ptr %3, align 8, !tbaa !3
  %23 = icmp eq ptr %21, %22
  br i1 %23, label %24, label %26

24:                                               ; preds = %19
  %25 = load ptr, ptr %5, align 8, !tbaa !3
  store ptr %25, ptr %4, align 8, !tbaa !3
  br label %26

26:                                               ; preds = %24, %19
  %27 = load ptr, ptr %5, align 8, !tbaa !3
  %28 = call ptr @lv_indev_get_next(ptr noundef %27)
  store ptr %28, ptr %5, align 8, !tbaa !3
  store i32 0, ptr %7, align 4
  br label %29

29:                                               ; preds = %26, %17
  call void @llvm.lifetime.end.p0(i64 4, ptr %6) #3
  %30 = load i32, ptr %7, align 4
  switch i32 %30, label %34 [
    i32 0, label %31
  ]

31:                                               ; preds = %29
  br label %9, !llvm.loop !28

32:                                               ; preds = %9
  %33 = load ptr, ptr %4, align 8, !tbaa !3
  store ptr %33, ptr %2, align 8
  store i32 1, ptr %7, align 4
  br label %34

34:                                               ; preds = %32, %29
  call void @llvm.lifetime.end.p0(i64 8, ptr %5) #3
  call void @llvm.lifetime.end.p0(i64 8, ptr %4) #3
  %35 = load ptr, ptr %2, align 8
  ret ptr %35
}

; Function Attrs: nounwind uwtable
define internal zeroext i1 @focus_next_core(ptr noundef %0, ptr noundef %1, ptr noundef %2) #0 {
  %4 = alloca i1, align 1
  %5 = alloca ptr, align 8
  %6 = alloca ptr, align 8
  %7 = alloca ptr, align 8
  %8 = alloca i8, align 1
  %9 = alloca i32, align 4
  %10 = alloca ptr, align 8
  %11 = alloca ptr, align 8
  %12 = alloca i8, align 1
  %13 = alloca i8, align 1
  %14 = alloca ptr, align 8
  %15 = alloca i32, align 4
  %16 = alloca i32, align 4
  store ptr %0, ptr %5, align 8, !tbaa !3
  store ptr %1, ptr %6, align 8, !tbaa !3
  store ptr %2, ptr %7, align 8, !tbaa !3
  call void @llvm.lifetime.start.p0(i64 1, ptr %8) #3
  store i8 0, ptr %8, align 1, !tbaa !44
  %17 = load ptr, ptr %5, align 8, !tbaa !3
  %18 = getelementptr inbounds nuw %struct._lv_group_t, ptr %17, i32 0, i32 5
  %19 = load i8, ptr %18, align 8
  %20 = and i8 %19, 1
  %21 = icmp ne i8 %20, 0
  br i1 %21, label %22, label %25

22:                                               ; preds = %3
  %23 = load i8, ptr %8, align 1, !tbaa !44, !range !45, !noundef !46
  %24 = trunc i8 %23 to i1
  store i1 %24, ptr %4, align 1
  store i32 1, ptr %9, align 4
  br label %190

25:                                               ; preds = %3
  call void @llvm.lifetime.start.p0(i64 8, ptr %10) #3
  %26 = load ptr, ptr %5, align 8, !tbaa !3
  %27 = getelementptr inbounds nuw %struct._lv_group_t, ptr %26, i32 0, i32 1
  %28 = load ptr, ptr %27, align 8, !tbaa !7
  store ptr %28, ptr %10, align 8, !tbaa !3
  call void @llvm.lifetime.start.p0(i64 8, ptr %11) #3
  store ptr null, ptr %11, align 8, !tbaa !3
  call void @llvm.lifetime.start.p0(i64 1, ptr %12) #3
  store i8 1, ptr %12, align 1, !tbaa !44
  call void @llvm.lifetime.start.p0(i64 1, ptr %13) #3
  store i8 1, ptr %13, align 1, !tbaa !44
  br label %29

29:                                               ; preds = %118, %96, %88, %25
  %30 = load ptr, ptr %10, align 8, !tbaa !3
  %31 = icmp eq ptr %30, null
  br i1 %31, label %32, label %58

32:                                               ; preds = %29
  %33 = load ptr, ptr %5, align 8, !tbaa !3
  %34 = getelementptr inbounds nuw %struct._lv_group_t, ptr %33, i32 0, i32 5
  %35 = load i8, ptr %34, align 8
  %36 = lshr i8 %35, 3
  %37 = and i8 %36, 1
  %38 = zext i8 %37 to i32
  %39 = icmp ne i32 %38, 0
  br i1 %39, label %43, label %40

40:                                               ; preds = %32
  %41 = load ptr, ptr %11, align 8, !tbaa !3
  %42 = icmp eq ptr %41, null
  br i1 %42, label %43, label %54

43:                                               ; preds = %40, %32
  %44 = load i8, ptr %13, align 1, !tbaa !44, !range !45, !noundef !46
  %45 = trunc i8 %44 to i1
  br i1 %45, label %49, label %46

46:                                               ; preds = %43
  %47 = load i8, ptr %8, align 1, !tbaa !44, !range !45, !noundef !46
  %48 = trunc i8 %47 to i1
  store i1 %48, ptr %4, align 1
  store i32 1, ptr %9, align 4
  br label %189

49:                                               ; preds = %43
  %50 = load ptr, ptr %6, align 8, !tbaa !3
  %51 = load ptr, ptr %5, align 8, !tbaa !3
  %52 = getelementptr inbounds nuw %struct._lv_group_t, ptr %51, i32 0, i32 0
  %53 = call ptr %50(ptr noundef %52)
  store ptr %53, ptr %10, align 8, !tbaa !3
  store i8 0, ptr %12, align 1, !tbaa !44
  store i8 0, ptr %13, align 1, !tbaa !44
  br label %57

54:                                               ; preds = %40
  %55 = load i8, ptr %8, align 1, !tbaa !44, !range !45, !noundef !46
  %56 = trunc i8 %55 to i1
  store i1 %56, ptr %4, align 1
  store i32 1, ptr %9, align 4
  br label %189

57:                                               ; preds = %49
  br label %58

58:                                               ; preds = %57, %29
  %59 = load ptr, ptr %11, align 8, !tbaa !3
  %60 = icmp eq ptr %59, null
  br i1 %60, label %61, label %69

61:                                               ; preds = %58
  %62 = load ptr, ptr %10, align 8, !tbaa !3
  store ptr %62, ptr %11, align 8, !tbaa !3
  %63 = load ptr, ptr %11, align 8, !tbaa !3
  %64 = icmp eq ptr %63, null
  br i1 %64, label %65, label %68

65:                                               ; preds = %61
  %66 = load i8, ptr %8, align 1, !tbaa !44, !range !45, !noundef !46
  %67 = trunc i8 %66 to i1
  store i1 %67, ptr %4, align 1
  store i32 1, ptr %9, align 4
  br label %189

68:                                               ; preds = %61
  br label %69

69:                                               ; preds = %68, %58
  %70 = load i8, ptr %12, align 1, !tbaa !44, !range !45, !noundef !46
  %71 = trunc i8 %70 to i1
  br i1 %71, label %72, label %85

72:                                               ; preds = %69
  %73 = load ptr, ptr %7, align 8, !tbaa !3
  %74 = load ptr, ptr %5, align 8, !tbaa !3
  %75 = getelementptr inbounds nuw %struct._lv_group_t, ptr %74, i32 0, i32 0
  %76 = load ptr, ptr %10, align 8, !tbaa !3
  %77 = call ptr %73(ptr noundef %75, ptr noundef %76)
  store ptr %77, ptr %10, align 8, !tbaa !3
  %78 = load ptr, ptr %10, align 8, !tbaa !3
  %79 = load ptr, ptr %11, align 8, !tbaa !3
  %80 = icmp eq ptr %78, %79
  br i1 %80, label %81, label %84

81:                                               ; preds = %72
  %82 = load i8, ptr %8, align 1, !tbaa !44, !range !45, !noundef !46
  %83 = trunc i8 %82 to i1
  store i1 %83, ptr %4, align 1
  store i32 1, ptr %9, align 4
  br label %189

84:                                               ; preds = %72
  br label %85

85:                                               ; preds = %84, %69
  store i8 1, ptr %12, align 1, !tbaa !44
  %86 = load ptr, ptr %10, align 8, !tbaa !3
  %87 = icmp eq ptr %86, null
  br i1 %87, label %88, label %89

88:                                               ; preds = %85
  br label %29

89:                                               ; preds = %85
  %90 = load ptr, ptr %10, align 8, !tbaa !3
  %91 = load ptr, ptr %90, align 8, !tbaa !3
  %92 = call zeroext i16 @lv_obj_get_state(ptr noundef %91)
  %93 = zext i16 %92 to i32
  %94 = and i32 %93, 128
  %95 = icmp ne i32 %94, 0
  br i1 %95, label %96, label %97

96:                                               ; preds = %89
  br label %29

97:                                               ; preds = %89
  call void @llvm.lifetime.start.p0(i64 8, ptr %14) #3
  %98 = load ptr, ptr %10, align 8, !tbaa !3
  %99 = load ptr, ptr %98, align 8, !tbaa !3
  store ptr %99, ptr %14, align 8, !tbaa !3
  br label %100

100:                                              ; preds = %107, %97
  %101 = load ptr, ptr %14, align 8, !tbaa !3
  %102 = icmp ne ptr %101, null
  br i1 %102, label %103, label %110

103:                                              ; preds = %100
  %104 = load ptr, ptr %14, align 8, !tbaa !3
  %105 = call zeroext i1 @lv_obj_has_flag(ptr noundef %104, i32 noundef 1)
  br i1 %105, label %106, label %107

106:                                              ; preds = %103
  br label %110

107:                                              ; preds = %103
  %108 = load ptr, ptr %14, align 8, !tbaa !3
  %109 = call ptr @lv_obj_get_parent(ptr noundef %108)
  store ptr %109, ptr %14, align 8, !tbaa !3
  br label %100, !llvm.loop !47

110:                                              ; preds = %106, %100
  %111 = load ptr, ptr %14, align 8, !tbaa !3
  %112 = icmp ne ptr %111, null
  br i1 %112, label %113, label %117

113:                                              ; preds = %110
  %114 = load ptr, ptr %14, align 8, !tbaa !3
  %115 = call zeroext i1 @lv_obj_has_flag(ptr noundef %114, i32 noundef 1)
  br i1 %115, label %116, label %117

116:                                              ; preds = %113
  store i32 3, ptr %9, align 4
  br label %118

117:                                              ; preds = %113, %110
  store i32 2, ptr %9, align 4
  br label %118

118:                                              ; preds = %117, %116
  call void @llvm.lifetime.end.p0(i64 8, ptr %14) #3
  %119 = load i32, ptr %9, align 4
  switch i32 %119, label %192 [
    i32 3, label %29
    i32 2, label %120
  ]

120:                                              ; preds = %118
  %121 = load ptr, ptr %10, align 8, !tbaa !3
  %122 = load ptr, ptr %5, align 8, !tbaa !3
  %123 = getelementptr inbounds nuw %struct._lv_group_t, ptr %122, i32 0, i32 1
  %124 = load ptr, ptr %123, align 8, !tbaa !7
  %125 = icmp eq ptr %121, %124
  br i1 %125, label %126, label %129

126:                                              ; preds = %120
  %127 = load i8, ptr %8, align 1, !tbaa !44, !range !45, !noundef !46
  %128 = trunc i8 %127 to i1
  store i1 %128, ptr %4, align 1
  store i32 1, ptr %9, align 4
  br label %189

129:                                              ; preds = %120
  %130 = load ptr, ptr %5, align 8, !tbaa !3
  %131 = getelementptr inbounds nuw %struct._lv_group_t, ptr %130, i32 0, i32 1
  %132 = load ptr, ptr %131, align 8, !tbaa !7
  %133 = icmp ne ptr %132, null
  br i1 %133, label %134, label %155

134:                                              ; preds = %129
  call void @llvm.lifetime.start.p0(i64 4, ptr %15) #3
  %135 = load ptr, ptr %5, align 8, !tbaa !3
  %136 = getelementptr inbounds nuw %struct._lv_group_t, ptr %135, i32 0, i32 1
  %137 = load ptr, ptr %136, align 8, !tbaa !7
  %138 = load ptr, ptr %137, align 8, !tbaa !3
  %139 = load ptr, ptr %5, align 8, !tbaa !3
  %140 = call ptr @get_indev(ptr noundef %139)
  %141 = call i32 @lv_obj_send_event(ptr noundef %138, i32 noundef 20, ptr noundef %140)
  store i32 %141, ptr %15, align 4, !tbaa !27
  %142 = load i32, ptr %15, align 4, !tbaa !27
  %143 = icmp ne i32 %142, 1
  br i1 %143, label %144, label %147

144:                                              ; preds = %134
  %145 = load i8, ptr %8, align 1, !tbaa !44, !range !45, !noundef !46
  %146 = trunc i8 %145 to i1
  store i1 %146, ptr %4, align 1
  store i32 1, ptr %9, align 4
  br label %152

147:                                              ; preds = %134
  %148 = load ptr, ptr %5, align 8, !tbaa !3
  %149 = getelementptr inbounds nuw %struct._lv_group_t, ptr %148, i32 0, i32 1
  %150 = load ptr, ptr %149, align 8, !tbaa !7
  %151 = load ptr, ptr %150, align 8, !tbaa !3
  call void @lv_obj_invalidate(ptr noundef %151)
  store i32 0, ptr %9, align 4
  br label %152

152:                                              ; preds = %147, %144
  call void @llvm.lifetime.end.p0(i64 4, ptr %15) #3
  %153 = load i32, ptr %9, align 4
  switch i32 %153, label %189 [
    i32 0, label %154
  ]

154:                                              ; preds = %152
  br label %155

155:                                              ; preds = %154, %129
  %156 = load ptr, ptr %10, align 8, !tbaa !3
  %157 = load ptr, ptr %5, align 8, !tbaa !3
  %158 = getelementptr inbounds nuw %struct._lv_group_t, ptr %157, i32 0, i32 1
  store ptr %156, ptr %158, align 8, !tbaa !7
  call void @llvm.lifetime.start.p0(i64 4, ptr %16) #3
  %159 = load ptr, ptr %5, align 8, !tbaa !3
  %160 = getelementptr inbounds nuw %struct._lv_group_t, ptr %159, i32 0, i32 1
  %161 = load ptr, ptr %160, align 8, !tbaa !7
  %162 = load ptr, ptr %161, align 8, !tbaa !3
  %163 = load ptr, ptr %5, align 8, !tbaa !3
  %164 = call ptr @get_indev(ptr noundef %163)
  %165 = call i32 @lv_obj_send_event(ptr noundef %162, i32 noundef 19, ptr noundef %164)
  store i32 %165, ptr %16, align 4, !tbaa !27
  %166 = load i32, ptr %16, align 4, !tbaa !27
  %167 = icmp ne i32 %166, 1
  br i1 %167, label %168, label %171

168:                                              ; preds = %155
  %169 = load i8, ptr %8, align 1, !tbaa !44, !range !45, !noundef !46
  %170 = trunc i8 %169 to i1
  store i1 %170, ptr %4, align 1
  store i32 1, ptr %9, align 4
  br label %188

171:                                              ; preds = %155
  %172 = load ptr, ptr %5, align 8, !tbaa !3
  %173 = getelementptr inbounds nuw %struct._lv_group_t, ptr %172, i32 0, i32 1
  %174 = load ptr, ptr %173, align 8, !tbaa !7
  %175 = load ptr, ptr %174, align 8, !tbaa !3
  call void @lv_obj_invalidate(ptr noundef %175)
  %176 = load ptr, ptr %5, align 8, !tbaa !3
  %177 = getelementptr inbounds nuw %struct._lv_group_t, ptr %176, i32 0, i32 2
  %178 = load ptr, ptr %177, align 8, !tbaa !11
  %179 = icmp ne ptr %178, null
  br i1 %179, label %180, label %185

180:                                              ; preds = %171
  %181 = load ptr, ptr %5, align 8, !tbaa !3
  %182 = getelementptr inbounds nuw %struct._lv_group_t, ptr %181, i32 0, i32 2
  %183 = load ptr, ptr %182, align 8, !tbaa !11
  %184 = load ptr, ptr %5, align 8, !tbaa !3
  call void %183(ptr noundef %184)
  br label %185

185:                                              ; preds = %180, %171
  store i8 1, ptr %8, align 1, !tbaa !44
  %186 = load i8, ptr %8, align 1, !tbaa !44, !range !45, !noundef !46
  %187 = trunc i8 %186 to i1
  store i1 %187, ptr %4, align 1
  store i32 1, ptr %9, align 4
  br label %188

188:                                              ; preds = %185, %168
  call void @llvm.lifetime.end.p0(i64 4, ptr %16) #3
  br label %189

189:                                              ; preds = %188, %152, %126, %81, %65, %54, %46
  call void @llvm.lifetime.end.p0(i64 1, ptr %13) #3
  call void @llvm.lifetime.end.p0(i64 1, ptr %12) #3
  call void @llvm.lifetime.end.p0(i64 8, ptr %11) #3
  call void @llvm.lifetime.end.p0(i64 8, ptr %10) #3
  br label %190

190:                                              ; preds = %189, %22
  call void @llvm.lifetime.end.p0(i64 1, ptr %8) #3
  %191 = load i1, ptr %4, align 1
  ret i1 %191

192:                                              ; preds = %118
  unreachable
}