; Function Attrs: nounwind uwtable
define internal fastcc noundef zeroext i1 @focus_next_core(ptr noundef nonnull %0, ptr nocapture noundef readonly %1, ptr nocapture noundef readonly %2) unnamed_addr #0 {
  %4 = getelementptr inbounds nuw i8, ptr %0, i64 56
  %5 = load i8, ptr %4, align 8
  %6 = and i8 %5, 1
  %.not = icmp eq i8 %6, 0
  br i1 %.not, label %7, label %.critedge76

7:                                                ; preds = %3
  %8 = getelementptr inbounds nuw i8, ptr %0, i64 24
  %9 = load ptr, ptr %8, align 8, !tbaa !3
  br label %.backedge

.backedge:                                        ; preds = %.backedge.backedge, %7
  %.060 = phi ptr [ %9, %7 ], [ %.262, %.backedge.backedge ]
  %.058 = phi ptr [ null, %7 ], [ %.159, %.backedge.backedge ]
  %.054 = phi i1 [ true, %7 ], [ %.155, %.backedge.backedge ]
  %.not68 = icmp eq ptr %.060, null
  br i1 %.not68, label %10, label %17

10:                                               ; preds = %.backedge
  %11 = load i8, ptr %4, align 8
  %12 = and i8 %11, 8
  %13 = icmp ne i8 %12, 0
  %14 = icmp eq ptr %.058, null
  %or.cond.not99.not102 = select i1 %13, i1 true, i1 %14
  %brmerge.not = select i1 %or.cond.not99.not102, i1 %.054, i1 false
  br i1 %brmerge.not, label %15, label %.critedge76

15:                                               ; preds = %10
  %16 = tail call ptr %1(ptr noundef nonnull %0) #10, !callees !42
  br label %17

17:                                               ; preds = %15, %.backedge
  %.161 = phi ptr [ %16, %15 ], [ %.060, %.backedge ]
  %.155 = phi i1 [ false, %15 ], [ %.054, %.backedge ]
  %18 = icmp eq ptr %.058, null
  br i1 %18, label %19, label %21

19:                                               ; preds = %17
  %20 = icmp eq ptr %.161, null
  br i1 %20, label %.critedge76, label %21

21:                                               ; preds = %19, %17
  %.159 = phi ptr [ %.161, %19 ], [ %.058, %17 ]
  br i1 %.not68, label %25, label %22

22:                                               ; preds = %21
  %23 = tail call ptr %2(ptr noundef nonnull %0, ptr noundef %.161) #10, !callees !43
  %24 = icmp eq ptr %23, %.159
  br i1 %24, label %.critedge76, label %25

25:                                               ; preds = %22, %21
  %.262 = phi ptr [ %23, %22 ], [ %.161, %21 ]
  %26 = icmp eq ptr %.262, null
  br i1 %26, label %.backedge.backedge, label %27

.backedge.backedge:                               ; preds = %25, %27, %36
  br label %.backedge

27:                                               ; preds = %25
  %28 = load ptr, ptr %.262, align 8, !tbaa !11
  %29 = tail call zeroext i16 @lv_obj_get_state(ptr noundef %28) #10
  %30 = and i16 %29, 128
  %.not69 = icmp eq i16 %30, 0
  br i1 %.not69, label %31, label %.backedge.backedge

31:                                               ; preds = %27
  %32 = load ptr, ptr %.262, align 8, !tbaa !11
  %.not7093 = icmp eq ptr %32, null
  br i1 %.not7093, label %.loopexit, label %.lr.ph

.lr.ph:                                           ; preds = %31, %34
  %.05394 = phi ptr [ %35, %34 ], [ %32, %31 ]
  %33 = tail call zeroext i1 @lv_obj_has_flag(ptr noundef nonnull %.05394, i32 noundef 1) #10
  br i1 %33, label %36, label %34

34:                                               ; preds = %.lr.ph
  %35 = tail call ptr @lv_obj_get_parent(ptr noundef nonnull %.05394) #10
  %.not70 = icmp eq ptr %35, null
  br i1 %.not70, label %.loopexit, label %.lr.ph, !llvm.loop !44

36:                                               ; preds = %.lr.ph
  %37 = tail call zeroext i1 @lv_obj_has_flag(ptr noundef nonnull %.05394, i32 noundef 1) #10
  br i1 %37, label %.backedge.backedge, label %.loopexit

.loopexit:                                        ; preds = %36, %31, %34
  %38 = load ptr, ptr %8, align 8, !tbaa !3
  %39 = icmp eq ptr %.262, %38
  br i1 %39, label %.critedge76, label %40

40:                                               ; preds = %.loopexit
  %.not71 = icmp eq ptr %38, null
  br i1 %.not71, label %53, label %41

41:                                               ; preds = %40
  %42 = load ptr, ptr %38, align 8, !tbaa !11
  %43 = tail call ptr @lv_indev_get_next(ptr noundef null) #10
  %.not20.i = icmp eq ptr %43, null
  br i1 %.not20.i, label %get_indev.exit, label %.lr.ph.i

.lr.ph.i:                                         ; preds = %41, %45
  %.01122.i = phi ptr [ %48, %45 ], [ %43, %41 ]
  %.01321.i = phi ptr [ %spec.select.i, %45 ], [ null, %41 ]
  %44 = tail call i32 @lv_indev_get_type(ptr noundef nonnull %.01122.i) #10
  %.not16.i = icmp eq i32 %44, 1
  br i1 %.not16.i, label %get_indev.exit, label %45

45:                                               ; preds = %.lr.ph.i
  %46 = tail call ptr @lv_indev_get_group(ptr noundef nonnull %.01122.i) #10
  %47 = icmp eq ptr %46, %0
  %spec.select.i = select i1 %47, ptr %.01122.i, ptr %.01321.i
  %48 = tail call ptr @lv_indev_get_next(ptr noundef nonnull %.01122.i) #10
  %.not.i = icmp eq ptr %48, null
  br i1 %.not.i, label %get_indev.exit, label %.lr.ph.i, !llvm.loop !12

get_indev.exit:                                   ; preds = %.lr.ph.i, %45, %41
  %.2.i = phi ptr [ null, %41 ], [ %spec.select.i, %45 ], [ %.01122.i, %.lr.ph.i ]
  %49 = tail call i32 @lv_obj_send_event(ptr noundef %42, i32 noundef 20, ptr noundef %.2.i) #10
  %.not72 = icmp eq i32 %49, 1
  br i1 %.not72, label %50, label %.critedge76

50:                                               ; preds = %get_indev.exit
  %51 = load ptr, ptr %8, align 8, !tbaa !3
  %52 = load ptr, ptr %51, align 8, !tbaa !11
  tail call void @lv_obj_invalidate(ptr noundef %52) #10
  br label %53

53:                                               ; preds = %50, %40
  store ptr %.262, ptr %8, align 8, !tbaa !3
  %54 = load ptr, ptr %.262, align 8, !tbaa !11
  %55 = tail call ptr @lv_indev_get_next(ptr noundef null) #10
  %.not20.i77 = icmp eq ptr %55, null
  br i1 %.not20.i77, label %get_indev.exit85, label %.lr.ph.i78

.lr.ph.i78:                                       ; preds = %53, %57
  %.01122.i79 = phi ptr [ %60, %57 ], [ %55, %53 ]
  %.01321.i80 = phi ptr [ %spec.select.i82, %57 ], [ null, %53 ]
  %56 = tail call i32 @lv_indev_get_type(ptr noundef nonnull %.01122.i79) #10
  %.not16.i81 = icmp eq i32 %56, 1
  br i1 %.not16.i81, label %get_indev.exit85, label %57

57:                                               ; preds = %.lr.ph.i78
  %58 = tail call ptr @lv_indev_get_group(ptr noundef nonnull %.01122.i79) #10
  %59 = icmp eq ptr %58, %0
  %spec.select.i82 = select i1 %59, ptr %.01122.i79, ptr %.01321.i80
  %60 = tail call ptr @lv_indev_get_next(ptr noundef nonnull %.01122.i79) #10
  %.not.i83 = icmp eq ptr %60, null
  br i1 %.not.i83, label %get_indev.exit85, label %.lr.ph.i78, !llvm.loop !12

get_indev.exit85:                                 ; preds = %.lr.ph.i78, %57, %53
  %.2.i84 = phi ptr [ null, %53 ], [ %spec.select.i82, %57 ], [ %.01122.i79, %.lr.ph.i78 ]
  %61 = tail call i32 @lv_obj_send_event(ptr noundef %54, i32 noundef 19, ptr noundef %.2.i84) #10
  %.not73 = icmp eq i32 %61, 1
  br i1 %.not73, label %62, label %.critedge76

62:                                               ; preds = %get_indev.exit85
  %63 = load ptr, ptr %8, align 8, !tbaa !3
  %64 = load ptr, ptr %63, align 8, !tbaa !11
  tail call void @lv_obj_invalidate(ptr noundef %64) #10
  %65 = getelementptr inbounds nuw i8, ptr %0, i64 32
  %66 = load ptr, ptr %65, align 8, !tbaa !39
  %.not74 = icmp eq ptr %66, null
  br i1 %.not74, label %.critedge76, label %67

67:                                               ; preds = %62
  tail call void %66(ptr noundef nonnull %0) #10
  br label %.critedge76

.critedge76:                                      ; preds = %10, %19, %22, %.loopexit, %62, %67, %get_indev.exit85, %get_indev.exit, %3
  %.0 = phi i1 [ false, %3 ], [ false, %.loopexit ], [ true, %62 ], [ true, %67 ], [ false, %get_indev.exit85 ], [ false, %get_indev.exit ], [ false, %22 ], [ false, %19 ], [ false, %10 ]
  ret i1 %.0
}